(lp0
VRestoration and Rehabilitation
p1
aVVivian Beaumont Theater (NYC)
p2
aVTheater
p3
aVMotion Pictures
p4
aVReviews
p5
aVDocumentary Films and Programs
p6
aVIndependence Movements and Secession
p7
aVBiographical Information
p8
a.