(lp0
V761 words
p1
aVReviews
p2
aVTheater
p3
aVReviews
p4
aVBooks and Literature
p5
aVBiographical Information
p6
aVReviews
p7
aVBooks and Literature
p8
aVBiographical Information
p9
aVSolar Energy
p10
aVBooks and Literature
p11
aVTheater
p12
aVKayaks
p13
aVPoetry and Poets
p14
aVWorld War II (1939-45)
p15
aVNO INDEX TERMS
p16
aVELECTRIC LIGHT AND POWER
p17
aVPosters
p18
aVFestivals
p19
aVWorld War I (1914-18)
p20
aVMotion Pictures
p21
aVReviews
p22
aVRecordings (Video)
p23
aVMotion Pictures
p24
aVBiographical Information
p25
aVCooking and Cookbooks
p26
aVSoups
p27
aVBooks and Literature
p28
aV538 words
p29
aVReviews
p30
aVBooks and Literature
p31
aVLaw and Legislation
p32
aVEditorials
p33
aVBlacks
p34
aVDefaulting
p35
aVCredit
p36
aVColleges and Universities
p37
aVFinances
p38
aVPlagiarism
p39
aVTheater
p40
aVSuits and Litigation
p41
aVReviews
p42
aVBooks and Literature
p43
aVShutdowns (Institutional)
p44
aVArt
p45
aVFinances
p46
aV527 words
p47
aVMotion Pictures
p48
aVTheater
p49
aVCavestomp Festival
p50
aVFestivals
p51
aVMusic
p52
aVRecordings (Audio)
p53
aV740 words
p54
aVMurders and Attempted Murders
p55
aVDeoxyribonucleic Acid (Dna)
p56
aVSuits and Claims Against Government
p57
aVNO TAG
p58
aVReviews
p59
aVRecordings (Audio)
p60
aVMusic
p61
aVChristmas
p62
aVMotion Pictures
p63
aVReviews
p64
aV784 words
p65
a.