(lp0
VReviews
p1
aVTelevision
p2
aV809 Words
p3
aVReviews
p4
aVBooks and Literature
p5
aVEthics
p6
aVUnited States Politics and Government
p7
aVImpeachment
p8
aVMusic
p9
aVTheater
p10
aVPhilosophy
p11
aVSocial Conditions and Trends
p12
aVAdvertising
p13
aVComputer Chips
p14
aVHoliday Trade
p15
aVMarketing and Merchandising
p16
aVAdvertising
p17
aVToys
p18
aVTheater
p19
aVEncores! Great American Musicals in Concert (Series)
p20
aVExecutives and Management
p21
aVTravel and Vacations
p22
aV745 Words
p23
aVComputers and Information Systems
p24
aVInternet and World Wide Web
p25
aVReviews
p26
aVTheater
p27
aVComputers and Information Systems
p28
aVPrivatization
p29
aVInternet and World Wide Web
p30
aVReform and Reorganization
p31
aVNames, Organizational
p32
aVEssay Contests
p33
aVContests and Prizes
p34
aVReviews
p35
aVBooks and Literature
p36
aVReviews
p37
aVComputer and Video Games
p38
aVPrices (Fares, Fees and Rates)
p39
aVOutdoor Advertising
p40
aVDomestic Violence
p41
a.