(lp0
VTheater
p1
aVBiographical Information
p2
aVReviews
p3
aVChildren and Youth
p4
aVBooks and Literature
p5
aVNO TAG
p6
aVReviews
p7
aVMusic
p8
aVTheater
p9
aVBiographical Information
p10
aVDivorce, Separations and Annulments
p11
aVForgery
p12
aVBribery
p13
aVLegal Profession
p14
aVReviews
p15
aVBooks and Literature
p16
aVReviews
p17
aVBooks and Literature
p18
aVStocks and Bonds
p19
aVBrokers and Brokerage Firms
p20
aVTelevision
p21
aV122 Words
p22
aVMotion Pictures
p23
aVReviews
p24
aVCulture
p25
aVMonopolies
p26
aVComputers and the Internet
p27
aVEntertainment and Amusements
p28
aVFamilies and Family Life
p29
aVDancing
p30
aVPolice
p31
aVBlacks
p32
aVPolice Brutality and Misconduct
p33
aVCopyrights
p34
aVTheater
p35
aVSuits and Litigation
p36
aVChildren and Youth
p37
aVBooks and Literature
p38
aVArt
p39
aVAwards, Decorations and Honors
p40
aVBiographical Information
p41
aVCancer
p42
aVSpace
p43
aVUniverse
p44
aVRadiation
p45
aVResearch
p46
aVWater Pollution
p47
aVAccidents and Safety
p48
aVChildren and Youth
p49
aVRelativistic Heavy Ion Collider
p50
a.