(lp0
VTheater
p1
aVFreedom of Speech and Expression
p2
aVDiscrimination
p3
aVHomosexuality
p4
aVBooks and Literature
p5
aVAwards, Decorations and Honors
p6
aVReviews
p7
aVBooks and Literature
p8
aVCentral Park Wildlife Center/zoo (NYC)
p9
aVHorse Racing
p10
aVZoos
p11
aVTheater
p12
aVComputers and the Internet
p13
aVReviews
p14
aVRecordings (Audio)
p15
aVMusic
p16
aVReviews
p17
aVTelevision
p18
aVPlayoff Games
p19
aVBasketball
p20
aVExecutives and Management
p21
aVBooks and Literature
p22
aV770 words
p23
aVAdvertising
p24
aV606 words
p25
aVReviews
p26
aVChildren and Youth
p27
aVBooks and Literature
p28
aV984 words
p29
aV597 words
p30
aVReviews
p31
aVBooks and Literature
p32
aVFootball
p33
aVComputers and the Internet
p34
aVCystic Fibrosis
p35
aVComputers and the Internet
p36
aVReviews
p37
aVTelevision
p38
aVMergers, Acquisitions and Divestitures
p39
aVComputers and the Internet
p40
aVComputer Software
p41
aVPizza Pies
p42
aVMisleading and Deceptive Advertising
p43
aVSlogans and Mottoes
p44
aVAdvertising
p45
aVRestaurants
p46
aV303 words
p47
aVReviews
p48
aVBooks and Literature
p49
aVTheater
p50
aVEncores! Great American Musicals in Concert (Series)
p51
a.