(lp0
VReviews
p1
aVBooks and Literature
p2
aVBooks and Literature
p3
aV1753 Words
p4
aVRegulation and Deregulation of Industry
p5
aVComputers and the Internet
p6
aVDancing
p7
aVReviews
p8
aVTheater
p9
aVComputers and the Internet
p10
aVMotion Pictures
p11
aVBooks and Literature
p12
aVAwards, Decorations and Honors
p13
aVRecordings (Audio)
p14
aVBiographical Information
p15
aVNew York Korean Film Festival 2001
p16
aVCulture
p17
aVMusic
p18
aVSchleswig-Holstein Music Festival (Ger)
p19
aVFestivals
p20
aVComputers and the Internet
p21
aVStamps (Postal)
p22
aVNO TAG
p23
aVComputers and the Internet
p24
aVMuseums
p25
aVComputers and the Internet
p26
aVComputers and the Internet
p27
aVConsumer Protection
p28
aVPrivacy
p29
aVTheater
p30
aVBiographical Information
p31
aVTrademarks and Trade Names
p32
aVComputers and the Internet
p33
aVFrauds and Swindling
p34
aV533 Words
p35
aVComputers and the Internet
p36
aV1100 Words
p37
aVBirth Control and Family Planning
p38
aVTrademarks and Trade Names
p39
aVAbortion
p40
aVComputers and the Internet
p41
aVSuits and Litigation
p42
aVUnited States Economy
p43
aVTaxation
p44
aVPublic Opinion
p45
aVConsumer Confidence (Economic Indicator)
p46
aVTrademarks and Trade Names
p47
aVComputers and the Internet
p48
aVFrauds and Swindling
p49
aVComputers and the Internet
p50
aVComputer Software
p51
aVReviews
p52
aVTheater
p53
aVFrance Moves (Festival)
p54
aVComputers and the Internet
p55
aVSuits and Litigation
p56
aVComputer Software
p57
aVTrademarks and Trade Names
p58
aVComputers and the Internet
p59
aVComputers and the Internet
p60
aVComputers and the Internet
p61
aVSuits and Litigation
p62
aVComputers and the Internet
p63
aVReviews
p64
aVTheater
p65
aVStates (US)
p66
aVComputers and the Internet
p67
aVLocal Government
p68
aVComputers and the Internet
p69
aVNames, Organizational
p70
a.