(lp0
VPoetry and Poets
p1
aVComputers and the Internet
p2
aVCrossword Puzzles
p3
aVDeaths (Obituaries)
p4
aVWriting and Writers
p5
aVHistory
p6
aVBooks and Literature
p7
aVChildren and Youth
p8
aVLaw and Legislation
p9
aVComputers and the Internet
p10
aVExecutives and Management
p11
aVEthics
p12
aVBooks and Literature
p13
aVTheater
p14
aVSuits and Litigation
p15
aVTheater
p16
aVAwards, Decorations and Honors
p17
aV122 words
p18
aVMotion Pictures
p19
aVTheater
p20
aVHalloween
p21
aVRecordings (Video)
p22
aVChildren and Youth
p23
aVLinux (Computer Operating System)
p24
aVComputers and the Internet
p25
aVComputer Software
p26
aV168 words
p27
aVReviews
p28
aVBooks and Literature
p29
aVComputers and the Internet
p30
aVDairy Products
p31
aVNames, Geographical
p32
aVComputers and the Internet
p33
aVComputer Software
p34
aVComputers and the Internet
p35
aVNames, Organizational
p36
aV1113 words
p37
aVTrademarks and Trade Names
p38
aVComputers and the Internet
p39
aVReviews
p40
aVTheater
p41
aVUnited States Armament and Defense
p42
aVTerrorism
p43
aVUnited States International Relations
p44
aVAtomic Weapons
p45
aVBiological and Chemical Warfare
p46
aV162 words
p47
aVMusic
p48
a.