(lp0
VMusic
p1
aVPhotography
p2
aVMusical Instruments
p3
aVArt
p4
aVLincoln Prize (Gettysburg College)
p5
aVChildren and Youth
p6
aVTelevision
p7
aVPianos
p8
aVSurveys and Series
p9
aVTerrorism
p10
aVAirlines and Airplanes
p11
aVWorld Trade Center (NYC)
p12
aVHijacking
p13
aVBuilding (Construction)
p14
aVCats
p15
aVDesign
p16
aVArchitecture
p17
aVTheater
p18
aVAppointments and Executive Changes
p19
aVOpera
p20
aVkennedy center mark twain prize for american humor
p21
aVWolf Trap Foundation for Performing Arts
p22
aVParthenon (Greece)
p23
aVArchaeology and Anthropology
p24
aVComedy and Humor
p25
aVElgin Marbles
p26
aVMusic
p27
aVRecordings (Audio)
p28
aVMusic
p29
aVTheater
p30
aVReviews
p31
aVTheater
p32
aVUtility Vehicles and Other Light Trucks
p33
aVAir Pollution
p34
aVOil (Petroleum) and Gasoline
p35
aVComputers and the Internet
p36
aVAutomobiles
p37
aVAdvertising
p38
aVGrand Palais (Paris)
p39
aVArt
p40
aVNews and News Media
p41
aVLibel and Slander
p42
aVSuits and Litigation
p43
aVConsumer Protection
p44
aVWines
p45
aVAntitrust Actions and Laws
p46
aVSales
p47
aVComputers and the Internet
p48
aVAlcoholic Beverages
p49
aVChildren and Youth
p50
aVPrices (Fares, Fees and Rates)
p51
aVArea Planning and Renewal
p52
aVAirlines and Airplanes
p53
aVHijacking
p54
aVArchitecture
p55
aVTerrorism
p56
aVWorld Trade Center (NYC)
p57
aVQUOTATION OF THE DAY
p58
aVFreedom and Human Rights
p59
aVMotion Pictures
p60
aVStates (US)
p61
aVSuits and Litigation
p62
aVPrices (Fares, Fees and Rates)
p63
aVLegal Aid for the Poor
p64
aVBudgets and Budgeting
p65
aVFinances
p66
aVUnited States Economy
p67
aVBooks and Literature
p68
aVHousing
p69
aVLabor
p70
a.