(lp0
VBooks and Literature
p1
aVUnited States International Relations
p2
aVTerrorism
p3
aVPalestinians
p4
aVDecisions and Verdicts
p5
aVMurders and Attempted Murders
p6
aVSentences (Criminal)
p7
aVCapital Punishment
p8
aVLaw and Legislation
p9
a.