(lp0
VChildren and Youth
p1
aVMusic
p2
aVTheater
p3
aVDancing
p4
aVRatings and Rating Systems
p5
aVTelevision
p6
aVPolitics and Government
p7
aVElections
p8
aVComedy and Humor
p9
aVTheater
p10
aVRecordings (Audio)
p11
aVPhilanthropy
p12
aVMusic
p13
aVNO TAG
p14
aVBooks and Literature
p15
aVReviews
p16
aVBooks and Literature
p17
aVMotion Pictures
p18
aVJews
p19
aVArt
p20
aVBooks and Literature
p21
aVLions
p22
aVTheater
p23
aVTheater
p24
aVEaster and Holy Week
p25
aVComputers and the Internet
p26
aVComputer Security
p27
aVSuits and Litigation
p28
aVReviews
p29
aVNew York International Fringe Festival
p30
aVTheater
p31
aVReviews
p32
aVBooks and Literature
p33
aVPiracy at Sea
p34
a.