(lp0
VReviews
p1
aVTheater
p2
aVReviews
p3
aVTheater
p4
aVSheep
p5
aVChildren and Youth
p6
aVUpper West Fest
p7
aVTheater
p8
aVAdvertising and Marketing
p9
aVComputers and the Internet
p10
aVSmall Business
p11
aVReviews
p12
aVBooks and Literature
p13
aVMotion Pictures
p14
aVPhilosophy
p15
aVScience and Technology
p16
aVReligion and Churches
p17
aVSlogans and Mottoes
p18
aVHurricanes and Tropical Storms
p19
aVKatrina (Storm)
p20
aVElections
p21
aVBudgets and Budgeting
p22
aVElection Issues
p23
aVFinances
p24
a.